target datalayout = "e-m:e-p270:32:32-p271:32:32-p272:64:64-i64:64-i128:128-f80:128-n8:16:32:64-S128"
target triple = "x86_64-pc-linux-gnu"

%"class.Imath_3_2::Vec2" = type { float, float }
%"class.Imath_3_2::Vec3" = type { float, float, float }
%"class.Imath_3_2::Box" = type { %"class.Imath_3_2::Vec2.0", %"class.Imath_3_2::Vec2.0" }
%"class.Imath_3_2::Vec2.0" = type { i32, i32 }

; Function Attrs: inlinehint mustprogress nounwind uwtable
define linkonce_odr hidden void @_ZN9Imath_3_24Vec2IfEC2Eff(ptr noundef nonnull align 4 dereferenceable(8) %0, float noundef %1, float noundef %2) unnamed_addr #6 comdat align 2 {
  %4 = alloca ptr, align 8
  %5 = alloca float, align 4
  %6 = alloca float, align 4
  store ptr %0, ptr %4, align 8, !tbaa !16
  store float %1, ptr %5, align 4, !tbaa !12
  store float %2, ptr %6, align 4, !tbaa !12
  %7 = load ptr, ptr %4, align 8
  %8 = getelementptr inbounds nuw %"class.Imath_3_2::Vec2", ptr %7, i32 0, i32 0
  %9 = load float, ptr %5, align 4, !tbaa !12
  store float %9, ptr %8, align 4, !tbaa !18
  %10 = getelementptr inbounds nuw %"class.Imath_3_2::Vec2", ptr %7, i32 0, i32 1
  %11 = load float, ptr %6, align 4, !tbaa !12
  store float %11, ptr %10, align 4, !tbaa !20
  ret void
}

; Function Attrs: inlinehint mustprogress nounwind uwtable
define linkonce_odr hidden void @_ZN9Imath_3_24Vec3IfEC2Efff(ptr noundef nonnull align 4 dereferenceable(12) %0, float noundef %1, float noundef %2, float noundef %3) unnamed_addr #6 comdat align 2 {
  %5 = alloca ptr, align 8
  %6 = alloca float, align 4
  %7 = alloca float, align 4
  %8 = alloca float, align 4
  store ptr %0, ptr %5, align 8, !tbaa !3
  store float %1, ptr %6, align 4, !tbaa !12
  store float %2, ptr %7, align 4, !tbaa !12
  store float %3, ptr %8, align 4, !tbaa !12
  %9 = load ptr, ptr %5, align 8
  %10 = getelementptr inbounds nuw %"class.Imath_3_2::Vec3", ptr %9, i32 0, i32 0
  %11 = load float, ptr %6, align 4, !tbaa !12
  store float %11, ptr %10, align 4, !tbaa !11
  %12 = getelementptr inbounds nuw %"class.Imath_3_2::Vec3", ptr %9, i32 0, i32 1
  %13 = load float, ptr %7, align 4, !tbaa !12
  store float %13, ptr %12, align 4, !tbaa !13
  %14 = getelementptr inbounds nuw %"class.Imath_3_2::Vec3", ptr %9, i32 0, i32 2
  %15 = load float, ptr %8, align 4, !tbaa !12
  store float %15, ptr %14, align 4, !tbaa !8
  ret void
}

; Function Attrs: inlinehint mustprogress nounwind uwtable
define linkonce_odr noundef float @_ZSt3cosf(float noundef %0) #6 comdat {
  %2 = alloca float, align 4
  store float %0, ptr %2, align 4, !tbaa !12
  %3 = load float, ptr %2, align 4, !tbaa !12
  %4 = call float @cosf(float noundef %3) #3, !tbaa !14
  ret float %4
}

; Function Attrs: inlinehint mustprogress nounwind uwtable
define linkonce_odr noundef float @_ZSt3sinf(float noundef %0) #6 comdat {
  %2 = alloca float, align 4
  store float %0, ptr %2, align 4, !tbaa !12
  %3 = load float, ptr %2, align 4, !tbaa !12
  %4 = call float @sinf(float noundef %3) #3, !tbaa !14
  ret float %4
}

; Function Attrs: mustprogress nounwind uwtable
define void @_ZN7Imf_3_410LatLongMap7latLongERKN9Imath_3_23BoxINS1_4Vec2IiEEEERKNS3_IfEE(ptr dead_on_unwind noalias writable sret(%"class.Imath_3_2::Vec2") align 4 %0, ptr noundef nonnull align 4 dereferenceable(16) %1, ptr noundef nonnull align 4 dereferenceable(8) %2) #8 {
  %4 = alloca ptr, align 8
  %5 = alloca ptr, align 8
  %6 = alloca ptr, align 8
  %7 = alloca float, align 4
  %8 = alloca float, align 4
  store ptr %0, ptr %4, align 8
  store ptr %1, ptr %5, align 8, !tbaa !21
  store ptr %2, ptr %6, align 8, !tbaa !16
  call void @llvm.lifetime.start.p0(i64 4, ptr %7) #3
  call void @llvm.lifetime.start.p0(i64 4, ptr %8) #3
  %9 = load ptr, ptr %5, align 8, !tbaa !21
  %10 = getelementptr inbounds nuw %"class.Imath_3_2::Box", ptr %9, i32 0, i32 1
  %11 = getelementptr inbounds nuw %"class.Imath_3_2::Vec2.0", ptr %10, i32 0, i32 1
  %12 = load i32, ptr %11, align 4, !tbaa !23
  %13 = load ptr, ptr %5, align 8, !tbaa !21
  %14 = getelementptr inbounds nuw %"class.Imath_3_2::Box", ptr %13, i32 0, i32 0
  %15 = getelementptr inbounds nuw %"class.Imath_3_2::Vec2.0", ptr %14, i32 0, i32 1
  %16 = load i32, ptr %15, align 4, !tbaa !26
  %17 = icmp sgt i32 %12, %16
  br i1 %17, label %18, label %41

18:                                               ; preds = %3
  %19 = load ptr, ptr %6, align 8, !tbaa !16
  %20 = getelementptr inbounds nuw %"class.Imath_3_2::Vec2", ptr %19, i32 0, i32 1
  %21 = load float, ptr %20, align 4, !tbaa !20
  %22 = load ptr, ptr %5, align 8, !tbaa !21
  %23 = getelementptr inbounds nuw %"class.Imath_3_2::Box", ptr %22, i32 0, i32 0
  %24 = getelementptr inbounds nuw %"class.Imath_3_2::Vec2.0", ptr %23, i32 0, i32 1
  %25 = load i32, ptr %24, align 4, !tbaa !26
  %26 = sitofp i32 %25 to float
  %27 = fsub float %21, %26
  %28 = load ptr, ptr %5, align 8, !tbaa !21
  %29 = getelementptr inbounds nuw %"class.Imath_3_2::Box", ptr %28, i32 0, i32 1
  %30 = getelementptr inbounds nuw %"class.Imath_3_2::Vec2.0", ptr %29, i32 0, i32 1
  %31 = load i32, ptr %30, align 4, !tbaa !23
  %32 = load ptr, ptr %5, align 8, !tbaa !21
  %33 = getelementptr inbounds nuw %"class.Imath_3_2::Box", ptr %32, i32 0, i32 0
  %34 = getelementptr inbounds nuw %"class.Imath_3_2::Vec2.0", ptr %33, i32 0, i32 1
  %35 = load i32, ptr %34, align 4, !tbaa !26
  %36 = sub nsw i32 %31, %35
  %37 = sitofp i32 %36 to float
  %38 = fdiv float %27, %37
  %39 = fsub float %38, 5.000000e-01
  %40 = fmul float 0xC00921FB60000000, %39
  store float %40, ptr %7, align 4, !tbaa !12
  br label %42

41:                                               ; preds = %3
  store float 0.000000e+00, ptr %7, align 4, !tbaa !12
  br label %42

42:                                               ; preds = %41, %18
  %43 = load ptr, ptr %5, align 8, !tbaa !21
  %44 = getelementptr inbounds nuw %"class.Imath_3_2::Box", ptr %43, i32 0, i32 1
  %45 = getelementptr inbounds nuw %"class.Imath_3_2::Vec2.0", ptr %44, i32 0, i32 0
  %46 = load i32, ptr %45, align 4, !tbaa !27
  %47 = load ptr, ptr %5, align 8, !tbaa !21
  %48 = getelementptr inbounds nuw %"class.Imath_3_2::Box", ptr %47, i32 0, i32 0
  %49 = getelementptr inbounds nuw %"class.Imath_3_2::Vec2.0", ptr %48, i32 0, i32 0
  %50 = load i32, ptr %49, align 4, !tbaa !28
  %51 = icmp sgt i32 %46, %50
  br i1 %51, label %52, label %75

52:                                               ; preds = %42
  %53 = load ptr, ptr %6, align 8, !tbaa !16
  %54 = getelementptr inbounds nuw %"class.Imath_3_2::Vec2", ptr %53, i32 0, i32 0
  %55 = load float, ptr %54, align 4, !tbaa !18
  %56 = load ptr, ptr %5, align 8, !tbaa !21
  %57 = getelementptr inbounds nuw %"class.Imath_3_2::Box", ptr %56, i32 0, i32 0
  %58 = getelementptr inbounds nuw %"class.Imath_3_2::Vec2.0", ptr %57, i32 0, i32 0
  %59 = load i32, ptr %58, align 4, !tbaa !28
  %60 = sitofp i32 %59 to float
  %61 = fsub float %55, %60
  %62 = load ptr, ptr %5, align 8, !tbaa !21
  %63 = getelementptr inbounds nuw %"class.Imath_3_2::Box", ptr %62, i32 0, i32 1
  %64 = getelementptr inbounds nuw %"class.Imath_3_2::Vec2.0", ptr %63, i32 0, i32 0
  %65 = load i32, ptr %64, align 4, !tbaa !27
  %66 = load ptr, ptr %5, align 8, !tbaa !21
  %67 = getelementptr inbounds nuw %"class.Imath_3_2::Box", ptr %66, i32 0, i32 0
  %68 = getelementptr inbounds nuw %"class.Imath_3_2::Vec2.0", ptr %67, i32 0, i32 0
  %69 = load i32, ptr %68, align 4, !tbaa !28
  %70 = sub nsw i32 %65, %69
  %71 = sitofp i32 %70 to float
  %72 = fdiv float %61, %71
  %73 = fsub float %72, 5.000000e-01
  %74 = fmul float 0xC01921FB60000000, %73
  store float %74, ptr %8, align 4, !tbaa !12
  br label %76

75:                                               ; preds = %42
  store float 0.000000e+00, ptr %8, align 4, !tbaa !12
  br label %76

76:                                               ; preds = %75, %52
  %77 = load float, ptr %7, align 4, !tbaa !12
  %78 = load float, ptr %8, align 4, !tbaa !12
  call void @_ZN9Imath_3_24Vec2IfEC2Eff(ptr noundef nonnull align 4 dereferenceable(8) %0, float noundef %77, float noundef %78) #3
  call void @llvm.lifetime.end.p0(i64 4, ptr %8) #3
  call void @llvm.lifetime.end.p0(i64 4, ptr %7) #3
  ret void
}

; Function Attrs: mustprogress uwtable
define void @_ZN7Imf_3_410LatLongMap9directionERKN9Imath_3_23BoxINS1_4Vec2IiEEEERKNS3_IfEE(ptr dead_on_unwind noalias writable sret(%"class.Imath_3_2::Vec3") align 4 %0, ptr noundef nonnull align 4 dereferenceable(16) %1, ptr noundef nonnull align 4 dereferenceable(8) %2) #4 {
  %4 = alloca ptr, align 8
  %5 = alloca ptr, align 8
  %6 = alloca ptr, align 8
  %7 = alloca %"class.Imath_3_2::Vec2", align 4
  store ptr %0, ptr %4, align 8
  store ptr %1, ptr %5, align 8, !tbaa !21
  store ptr %2, ptr %6, align 8, !tbaa !16
  call void @llvm.lifetime.start.p0(i64 8, ptr %7) #3
  %8 = load ptr, ptr %5, align 8, !tbaa !21
  %9 = load ptr, ptr %6, align 8, !tbaa !16
  call void @_ZN7Imf_3_410LatLongMap7latLongERKN9Imath_3_23BoxINS1_4Vec2IiEEEERKNS3_IfEE(ptr dead_on_unwind writable sret(%"class.Imath_3_2::Vec2") align 4 %7, ptr noundef nonnull align 4 dereferenceable(16) %8, ptr noundef nonnull align 4 dereferenceable(8) %9)
  %10 = getelementptr inbounds nuw %"class.Imath_3_2::Vec2", ptr %7, i32 0, i32 1
  %11 = load float, ptr %10, align 4, !tbaa !20
  %12 = call noundef float @_ZSt3sinf(float noundef %11)
  %13 = getelementptr inbounds nuw %"class.Imath_3_2::Vec2", ptr %7, i32 0, i32 0
  %14 = load float, ptr %13, align 4, !tbaa !18
  %15 = call noundef float @_ZSt3cosf(float noundef %14)
  %16 = fmul float %12, %15
  %17 = getelementptr inbounds nuw %"class.Imath_3_2::Vec2", ptr %7, i32 0, i32 0
  %18 = load float, ptr %17, align 4, !tbaa !18
  %19 = call noundef float @_ZSt3sinf(float noundef %18)
  %20 = getelementptr inbounds nuw %"class.Imath_3_2::Vec2", ptr %7, i32 0, i32 1
  %21 = load float, ptr %20, align 4, !tbaa !20
  %22 = call noundef float @_ZSt3cosf(float noundef %21)
  %23 = getelementptr inbounds nuw %"class.Imath_3_2::Vec2", ptr %7, i32 0, i32 0
  %24 = load float, ptr %23, align 4, !tbaa !18
  %25 = call noundef float @_ZSt3cosf(float noundef %24)
  %26 = fmul float %22, %25
  call void @_ZN9Imath_3_24Vec3IfEC2Efff(ptr noundef nonnull align 4 dereferenceable(12) %0, float noundef %16, float noundef %19, float noundef %26) #3
  call void @llvm.lifetime.end.p0(i64 8, ptr %7) #3
  ret void
}