; Function Attrs: mustprogress nofree nounwind willreturn memory(write, argmem: readwrite) uwtable
define void @_ZN7Imf_3_410LatLongMap9directionERKN9Imath_3_23BoxINS1_4Vec2IiEEEERKNS3_IfEE(ptr dead_on_unwind noalias writable writeonly sret(%"class.Imath_3_2::Vec3") align 4 captures(none) initializes((0, 12)) %0, ptr noundef nonnull readonly align 4 captures(none) dereferenceable(16) %1, ptr noundef nonnull readonly align 4 captures(none) dereferenceable(8) %2) local_unnamed_addr #6 {
  %4 = getelementptr inbounds nuw i8, ptr %1, i64 8
  %5 = getelementptr inbounds nuw i8, ptr %1, i64 12
  %6 = load i32, ptr %5, align 4, !tbaa !16, !noalias !28
  %7 = getelementptr inbounds nuw i8, ptr %1, i64 4
  %8 = load i32, ptr %7, align 4, !tbaa !19, !noalias !28
  %9 = icmp sgt i32 %6, %8
  br i1 %9, label %10, label %20

10:                                               ; preds = %3
  %11 = getelementptr inbounds nuw i8, ptr %2, i64 4
  %12 = load float, ptr %11, align 4, !tbaa !15, !noalias !28
  %13 = sitofp i32 %8 to float
  %14 = fsub float %12, %13
  %15 = sub nsw i32 %6, %8
  %16 = sitofp i32 %15 to float
  %17 = fdiv float %14, %16
  %18 = fadd float %17, -5.000000e-01
  %19 = fmul float %18, 0xC00921FB60000000
  br label %20

20:                                               ; preds = %10, %3
  %.014.i = phi float [ %19, %10 ], [ 0.000000e+00, %3 ]
  %21 = load i32, ptr %4, align 4, !tbaa !20, !noalias !28
  %22 = load i32, ptr %1, align 4, !tbaa !21, !noalias !28
  %23 = icmp sgt i32 %21, %22
  br i1 %23, label %24, label %_ZN7Imf_3_410LatLongMap7latLongERKN9Imath_3_23BoxINS1_4Vec2IiEEEERKNS3_IfEE.exit

24:                                               ; preds = %20
  %25 = load float, ptr %2, align 4, !tbaa !13, !noalias !28
  %26 = sitofp i32 %22 to float
  %27 = fsub float %25, %26
  %28 = sub nsw i32 %21, %22
  %29 = sitofp i32 %28 to float
  %30 = fdiv float %27, %29
  %31 = fadd float %30, -5.000000e-01
  %32 = fmul float %31, 0xC01921FB60000000
  br label %_ZN7Imf_3_410LatLongMap7latLongERKN9Imath_3_23BoxINS1_4Vec2IiEEEERKNS3_IfEE.exit

_ZN7Imf_3_410LatLongMap7latLongERKN9Imath_3_23BoxINS1_4Vec2IiEEEERKNS3_IfEE.exit: ; preds = %20, %24
  %.0.i = phi float [ %32, %24 ], [ 0.000000e+00, %20 ]
  %33 = tail call noundef float @sinf(float noundef %.0.i) #13, !tbaa !11
  %34 = tail call noundef float @cosf(float noundef %.014.i) #13, !tbaa !11
  %35 = fmul float %33, %34
  %36 = tail call noundef float @sinf(float noundef %.014.i) #13, !tbaa !11
  %37 = tail call noundef float @cosf(float noundef %.0.i) #13, !tbaa !11
  %38 = tail call noundef float @cosf(float noundef %.014.i) #13, !tbaa !11
  %39 = fmul float %37, %38
  store float %35, ptr %0, align 4, !tbaa !8
  %40 = getelementptr inbounds nuw i8, ptr %0, i64 4
  store float %36, ptr %40, align 4, !tbaa !9
  %41 = getelementptr inbounds nuw i8, ptr %0, i64 8
  store float %39, ptr %41, align 4, !tbaa !3
  ret void
}